Certificate:
    Data:
        Version: 3 (0x2)
        Serial Number: 1 (0x1)
        Signature Algorithm: sha256WithRSAEncryption
        Issuer: C=CN, ST=hangzhou, O=EMQ, CN=RootCA
        Validity
            Not Before: May 25 09:44:04 2020 GMT
            Not After : May  1 09:44:04 2120 GMT
        Subject: C=CN, ST=hangzhou, O=EMQ, CN=Client
        Subject Public Key Info:
            Public Key Algorithm: rsaEncryption
                RSA Public-Key: (2048 bit)
                Modulus:
                    00:a1:46:5d:ab:9f:12:3f:c7:eb:31:c6:6c:e0:33:
                    09:3b:5e:82:38:99:9e:6b:62:52:45:c8:48:69:c4:
                    41:47:87:22:db:4c:5c:d3:8b:f1:56:0d:d4:7e:17:
                    2e:5e:70:c9:91:06:1d:8a:d2:81:ab:9a:42:c3:ee:
                    00:ec:cf:6f:d7:aa:ba:16:86:fd:e4:6c:48:04:4d:
                    88:ee:53:92:da:9d:76:cf:61:0e:d8:7f:64:b4:94:
                    80:e1:c5:db:4f:25:22:13:51:16:e7:76:5f:7b:b7:
                    54:d3:07:72:0b:11:3b:d0:08:a3:d3:f3:fc:96:d3:
                    cd:b0:f9:eb:cc:52:38:5f:e7:d7:cb:2e:f8:51:e7:
                    43:a3:6d:63:c2:49:ac:b8:e1:ea:53:c4:09:1b:f7:
                    a3:eb:21:80:0d:5a:5a:0d:85:4b:2b:9c:06:67:7f:
                    b4:2f:ce:3e:f2:e8:ad:28:c7:12:03:9b:10:7d:b0:
                    42:81:0b:51:33:13:d2:19:b1:9a:17:64:3d:4b:9f:
                    17:cd:a3:e2:d1:55:34:40:1d:d0:47:75:88:7d:94:
                    b6:9b:dc:b4:4a:f4:95:70:0a:8c:3d:6d:c6:3c:92:
                    d4:53:8d:2b:5b:55:45:96:0b:eb:e9:d8:33:04:3c:
                    59:1c:53:1f:c8:5b:7e:26:cc:9e:d9:c4:2c:f5:90:
                    d0:4b
                Exponent: 65537 (0x10001)
        X509v3 extensions:
            X509v3 Basic Constraints: 
                CA:FALSE
            X509v3 Key Usage: 
                Digital Signature, Non Repudiation, Key Encipherment
    Signature Algorithm: sha256WithRSAEncryption
         7b:c1:71:2a:0a:c6:1b:4e:3f:4e:ea:33:77:af:82:59:62:5a:
         74:ee:e0:ae:5e:de:67:97:df:85:66:ee:d4:fe:d7:f2:b3:95:
         35:b5:ef:f9:3d:ea:05:91:ad:b5:df:d1:fd:e8:5b:ea:89:07:
         54:1e:1b:26:ee:84:ff:65:6d:34:60:ff:1a:e4:bc:d2:84:e0:
         f6:25:eb:49:a5:67:15:83:cb:65:04:65:01:b8:1a:e2:44:fe:
         fb:26:73:bb:eb:86:af:23:74:e9:e7:76:84:c4:80:cd:f0:b1:
         86:5f:bf:04:e9:e0:39:6b:fd:7a:ec:9d:1f:ce:3f:0c:35:55:
         04:30:91:b0:0a:68:7e:0f:15:c5:d8:df:c8:a2:66:76:b9:4d:
         00:28:c6:95:01:09:1e:4d:bf:ad:24:61:32:31:a2:44:41:06:
         2c:49:af:79:12:26:98:e8:62:ab:57:ee:1b:91:46:99:a7:ba:
         b1:0e:49:4a:e8:84:30:5f:05:83:df:07:5d:85:cf:1c:cb:ce:
         cf:3f:fa:68:cc:c9:da:f1:df:90:e3:b6:97:f0:cc:27:6f:32:
         f5:63:1e:46:84:d5:e6:50:0d:8e:33:d9:1e:e0:da:37:1d:68:
         1d:7a:a6:5e:f3:e0:21:18:04:41:74:de:7d:00:04:71:34:fd:
         c8:df:39:5a
-----BEGIN CERTIFICATE-----
MIIDFTCCAf2gAwIBAgIBATANBgkqhkiG9w0BAQsFADA/MQswCQYDVQQGEwJDTjER
MA8GA1UECAwIaGFuZ3pob3UxDDAKBgNVBAoMA0VNUTEPMA0GA1UEAwwGUm9vdENB
MCAXDTIwMDUyNTA5NDQwNFoYDzIxMjAwNTAxMDk0NDA0WjA/MQswCQYDVQQGEwJD
TjERMA8GA1UECAwIaGFuZ3pob3UxDDAKBgNVBAoMA0VNUTEPMA0GA1UEAwwGQ2xp
ZW50MIIBIjANBgkqhkiG9w0BAQEFAAOCAQ8AMIIBCgKCAQEAoUZdq58SP8frMcZs
4DMJO16COJmea2JSRchIacRBR4ci20xc04vxVg3UfhcuXnDJkQYditKBq5pCw+4A
7M9v16q6Fob95GxIBE2I7lOS2p12z2EO2H9ktJSA4cXbTyUiE1EW53Zfe7dU0wdy
CxE70Aij0/P8ltPNsPnrzFI4X+fXyy74UedDo21jwkmsuOHqU8QJG/ej6yGADVpa
DYVLK5wGZ3+0L84+8uitKMcSA5sQfbBCgQtRMxPSGbGaF2Q9S58XzaPi0VU0QB3Q
R3WIfZS2m9y0SvSVcAqMPW3GPJLUU40rW1VFlgvr6dgzBDxZHFMfyFt+Jsye2cQs
9ZDQSwIDAQABoxowGDAJBgNVHRMEAjAAMAsGA1UdDwQEAwIF4DANBgkqhkiG9w0B
AQsFAAOCAQEAe8FxKgrGG04/Tuozd6+CWWJadO7grl7eZ5ffhWbu1P7X8rOVNbXv
+T3qBZGttd/R/ehb6okHVB4bJu6E/2VtNGD/GuS80oTg9iXrSaVnFYPLZQRlAbga
4kT++yZzu+uGryN06ed2hMSAzfCxhl+/BOngOWv9euydH84/DDVVBDCRsApofg8V
xdjfyKJmdrlNACjGlQEJHk2/rSRhMjGiREEGLEmveRImmOhiq1fuG5FGmae6sQ5J
SuiEMF8Fg98HXYXPHMvOzz/6aMzJ2vHfkOO2l/DMJ28y9WMeRoTV5lANjjPZHuDa
Nx1oHXqmXvPgIRgEQXTefQAEcTT9yN85Wg==
-----END CERTIFICATE-----
